; Function Attrs: mustprogress uwtable
define void @_ZNK6casadi6MXNode9get_nzaddERKNS_2MXES3_(ptr dead_on_unwind noalias writable sret(%"class.casadi::MX") align 8 %0, ptr noundef nonnull align 8 dereferenceable(64) %1, ptr noundef nonnull align 8 dereferenceable(8) %2, ptr noundef nonnull align 8 dereferenceable(8) %3) unnamed_addr #3 align 2 personality ptr @__gxx_personality_v0 {
  %5 = alloca %"class.casadi::MX", align 8
  %6 = tail call noundef nonnull align 8 dereferenceable(8) ptr @_ZNK6casadi2MX8sparsityEv(ptr noundef nonnull align 8 dereferenceable(8) %3)
  %7 = tail call noundef zeroext i1 @_ZNK6casadi8Sparsity8is_emptyEb(ptr noundef nonnull align 8 dereferenceable(8) %6, i1 noundef zeroext false)
  br i1 %7, label %13, label %8

8:                                                ; preds = %4
  %9 = load ptr, ptr %1, align 8
  %10 = getelementptr inbounds i8, ptr %9, i64 40
  %11 = load ptr, ptr %10, align 8
  %12 = tail call noundef zeroext i1 %11(ptr noundef nonnull align 8 dereferenceable(64) %1)
  br i1 %12, label %13, label %14

13:                                               ; preds = %8, %4
  tail call void @_ZN6casadi12SharedObjectC2ERKS0_(ptr noundef nonnull align 8 dereferenceable(8) %0, ptr noundef nonnull align 8 dereferenceable(8) %2)
  br label %21

14:                                               ; preds = %8
  call void @_ZNK6casadi20SharedObjectInternal16shared_from_thisINS_2MXEEEKT_v(ptr dead_on_unwind nonnull writable sret(%"class.casadi::MX") align 8 %5, ptr noundef nonnull align 8 dereferenceable(24) %1)
  %15 = invoke noalias noundef nonnull dereferenceable(64) ptr @_Znwm(i64 noundef 64) #35
          to label %.noexc unwind label %19

.noexc:                                           ; preds = %14
  invoke void @_ZN6casadi16SetNonzerosParamILb1EEC2ERKNS_2MXES4_S4_(ptr noundef nonnull align 8 dereferenceable(64) %15, ptr noundef nonnull align 8 dereferenceable(8) %2, ptr noundef nonnull align 8 dereferenceable(8) %5, ptr noundef nonnull align 8 dereferenceable(8) %3)
          to label %16 unwind label %17, !noalias !149

16:                                               ; preds = %.noexc
  store ptr getelementptr inbounds ({ [108 x ptr] }, ptr @_ZTVN6casadi22SetNonzerosParamVectorILb1EEE, i64 0, i32 0, i64 2), ptr %15, align 8, !noalias !149
  invoke void @_ZN6casadi2MX6createEPNS_6MXNodeE(ptr dead_on_unwind writable sret(%"class.casadi::MX") align 8 %0, ptr noundef nonnull %15)
          to label %_ZN6casadi16SetNonzerosParamILb1EE6createERKNS_2MXES4_S4_.exit unwind label %19

17:                                               ; preds = %.noexc
  %18 = landingpad { ptr, i32 }
          cleanup
  call void @_ZdlPv(ptr noundef nonnull %15) #32, !noalias !149
  br label %.body

_ZN6casadi16SetNonzerosParamILb1EE6createERKNS_2MXES4_S4_.exit: ; preds = %16
  call void @_ZN6casadi2MXD1Ev(ptr noundef nonnull align 8 dereferenceable(8) %5) #31
  br label %21

19:                                               ; preds = %16, %14
  %20 = landingpad { ptr, i32 }
          cleanup
  br label %.body

.body:                                            ; preds = %17, %19
  %eh.lpad-body = phi { ptr, i32 } [ %20, %19 ], [ %18, %17 ]
  call void @_ZN6casadi2MXD1Ev(ptr noundef nonnull align 8 dereferenceable(8) %5) #31
  resume { ptr, i32 } %eh.lpad-body

21:                                               ; preds = %_ZN6casadi16SetNonzerosParamILb1EE6createERKNS_2MXES4_S4_.exit, %13
  ret void
}